; Function Attrs: nounwind uwtable
define internal noundef i32 @_make_features_config(ptr noundef readonly captures(none) %0, ptr noundef %1) #0 {
  %3 = alloca ptr, align 8
  %.val = load ptr, ptr %0, align 8
  %4 = getelementptr i8, ptr %0, i64 8
  %.val4 = load ptr, ptr %4, align 8
  call void @llvm.lifetime.start.p0(i64 8, ptr nonnull %3) #10
  store ptr null, ptr %3, align 8
  call void (ptr, ptr, ...) @_xstrfmtcat(ptr noundef nonnull %3, ptr noundef nonnull @.str.52, ptr noundef %.val, ptr noundef %.val4) #10
  %5 = load ptr, ptr %3, align 8
  call void @llvm.lifetime.end.p0(i64 8, ptr nonnull %3) #10
  call void @add_key_pair_own(ptr noundef %1, ptr noundef nonnull @.str.19, ptr noundef %5) #10
  ret i32 0
}